; Function Attrs: mustprogress uwtable
define void @_ZNK6casadi4Opti8advancedEv(ptr dead_on_unwind noalias writable sret(%"class.casadi::OptiAdvanced") align 8 %0, ptr noundef nonnull align 8 dereferenceable(8) %1) local_unnamed_addr #3 align 2 personality ptr @__gxx_personality_v0 {
  %3 = alloca %"class.casadi::Opti", align 8
  %4 = tail call noundef ptr @_ZNK6casadi12SharedObjectptEv(ptr noundef nonnull align 8 dereferenceable(8) %1), !noalias !60
  call void @_ZNK6casadi8OptiNode4copyEv(ptr dead_on_unwind nonnull writable sret(%"class.casadi::Opti") align 8 %3, ptr noundef nonnull align 8 dereferenceable(672) %4)
  invoke void @_ZN6casadi12OptiAdvancedC1ERKNS_4OptiE(ptr noundef nonnull align 8 dereferenceable(11) %0, ptr noundef nonnull align 8 dereferenceable(8) %3)
          to label %5 unwind label %6

5:                                                ; preds = %2
  call void @_ZN6casadi12SharedObjectD2Ev(ptr noundef nonnull align 8 dereferenceable(8) %3) #17
  ret void

6:                                                ; preds = %2
  %7 = landingpad { ptr, i32 }
          cleanup
  call void @_ZN6casadi12SharedObjectD2Ev(ptr noundef nonnull align 8 dereferenceable(8) %3) #17
  resume { ptr, i32 } %7
}